; Function Attrs: mustprogress uwtable
define void @_ZNK32pxrInternal_v0_24__pxrReserved__12UsdGeomGprim22GetDisplayColorPrimvarEv(ptr dead_on_unwind noalias writable sret(%"class.pxrInternal_v0_24__pxrReserved__::UsdGeomPrimvar") align 8 %0, ptr noundef nonnull align 8 dereferenceable(24) %1) local_unnamed_addr #0 align 2 personality ptr @__gxx_personality_v0 {
  %3 = alloca %"class.pxrInternal_v0_24__pxrReserved__::UsdAttribute", align 8
  call void @_ZNK32pxrInternal_v0_24__pxrReserved__12UsdGeomGprim19GetDisplayColorAttrEv(ptr dead_on_unwind nonnull writable sret(%"class.pxrInternal_v0_24__pxrReserved__::UsdAttribute") align 8 %3, ptr noundef nonnull align 8 dereferenceable(24) %1)
  invoke void @_ZN32pxrInternal_v0_24__pxrReserved__14UsdGeomPrimvarC1ERKNS_12UsdAttributeE(ptr noundef nonnull align 8 dereferenceable(44) %0, ptr noundef nonnull align 8 dereferenceable(32) %3)
          to label %4 unwind label %38

4:                                                ; preds = %2
  %5 = getelementptr inbounds nuw i8, ptr %3, i64 24
  %6 = load ptr, ptr %5, align 8
  %7 = ptrtoint ptr %6 to i64
  %8 = and i64 %7, 7
  %.not.i.i.i.i.i = icmp eq i64 %8, 0
  br i1 %.not.i.i.i.i.i, label %_ZN32pxrInternal_v0_24__pxrReserved__7TfTokenD2Ev.exit.i.i.i, label %9

9:                                                ; preds = %4
  %10 = and i64 %7, -8
  %11 = inttoptr i64 %10 to ptr
  %12 = atomicrmw sub ptr %11, i32 2 release, align 4
  br label %_ZN32pxrInternal_v0_24__pxrReserved__7TfTokenD2Ev.exit.i.i.i

_ZN32pxrInternal_v0_24__pxrReserved__7TfTokenD2Ev.exit.i.i.i: ; preds = %9, %4
  %13 = getelementptr inbounds nuw i8, ptr %3, i64 16
  %14 = load i32, ptr %13, align 8
  %.not.i.i1.i.i.i = icmp eq i32 %14, 0
  br i1 %.not.i.i1.i.i.i, label %_ZN32pxrInternal_v0_24__pxrReserved__7SdfPathD2Ev.exit.i.i.i, label %15

15:                                               ; preds = %_ZN32pxrInternal_v0_24__pxrReserved__7TfTokenD2Ev.exit.i.i.i
  %16 = and i32 %14, 255
  %17 = lshr i32 %14, 8
  %18 = zext nneg i32 %16 to i64
  %19 = getelementptr inbounds [257 x ptr], ptr @_ZN32pxrInternal_v0_24__pxrReserved__8Sdf_PoolINS_15Sdf_PathPrimTagELj24ELj8ELj16384EE13_regionStartsE, i64 0, i64 %18
  %20 = load ptr, ptr %19, align 8
  %21 = mul nuw nsw i32 %17, 24
  %22 = zext nneg i32 %21 to i64
  %23 = getelementptr inbounds i8, ptr %20, i64 %22
  %24 = getelementptr inbounds nuw i8, ptr %23, i64 8
  %25 = atomicrmw sub ptr %24, i32 1 seq_cst, align 4
  %26 = and i32 %25, 2147483647
  %27 = icmp eq i32 %26, 1
  br i1 %27, label %28, label %_ZN32pxrInternal_v0_24__pxrReserved__7SdfPathD2Ev.exit.i.i.i

28:                                               ; preds = %15
  invoke void @_ZNK32pxrInternal_v0_24__pxrReserved__12Sdf_PathNode8_DestroyEv(ptr noundef nonnull align 8 dereferenceable(16) %23)
          to label %_ZN32pxrInternal_v0_24__pxrReserved__7SdfPathD2Ev.exit.i.i.i unwind label %29

29:                                               ; preds = %28
  %30 = landingpad { ptr, i32 }
          catch ptr null
  %31 = extractvalue { ptr, i32 } %30, 0
  call void @__clang_call_terminate(ptr %31) #17
  unreachable

_ZN32pxrInternal_v0_24__pxrReserved__7SdfPathD2Ev.exit.i.i.i: ; preds = %28, %15, %_ZN32pxrInternal_v0_24__pxrReserved__7TfTokenD2Ev.exit.i.i.i
  %32 = getelementptr inbounds nuw i8, ptr %3, i64 8
  %33 = load ptr, ptr %32, align 8
  %.not.i.i.i.i.i.i = icmp eq ptr %33, null
  br i1 %.not.i.i.i.i.i.i, label %_ZN32pxrInternal_v0_24__pxrReserved__12UsdAttributeD2Ev.exit, label %34

34:                                               ; preds = %_ZN32pxrInternal_v0_24__pxrReserved__7SdfPathD2Ev.exit.i.i.i
  %35 = getelementptr inbounds nuw i8, ptr %33, i64 48
  %36 = atomicrmw sub ptr %35, i64 1 release, align 8
  %.not1.i.i.i.i.i.i = icmp eq i64 %36, 1
  br i1 %.not1.i.i.i.i.i.i, label %37, label %_ZN32pxrInternal_v0_24__pxrReserved__12UsdAttributeD2Ev.exit

37:                                               ; preds = %34
  call void @_ZN32pxrInternal_v0_24__pxrReserved__12Usd_PrimDataD1Ev(ptr noundef nonnull align 8 dereferenceable(64) %33) #15
  call void @_ZdlPvm(ptr noundef nonnull %33, i64 noundef 64) #16
  br label %_ZN32pxrInternal_v0_24__pxrReserved__12UsdAttributeD2Ev.exit

_ZN32pxrInternal_v0_24__pxrReserved__12UsdAttributeD2Ev.exit: ; preds = %_ZN32pxrInternal_v0_24__pxrReserved__7SdfPathD2Ev.exit.i.i.i, %34, %37
  ret void

38:                                               ; preds = %2
  %39 = landingpad { ptr, i32 }
          cleanup
  call void @_ZN32pxrInternal_v0_24__pxrReserved__12UsdAttributeD2Ev(ptr noundef nonnull align 8 dereferenceable(32) %3) #15
  resume { ptr, i32 } %39
}